#include <math.h>
#include <stdio.h>
#include <stdlib.h>
#include <string.h>

int main()
{
	int i,j,n,flag;
	int a[100000];
	scanf("%d\n",&n);
	scanf("%d",&a[0]);
	for(i=1;i<n;i++)
	{
		scanf(" %d",&a[i]);
	}
	printf("%d",a[0]);
	for(i=1;i<n;i++)
	{
		flag=0;
		for(j=0;j<i;j++)
		{
			if(a[j]==a[i])
				flag=1;
		}
		if(flag==0)
		printf(" %d",a[i]);
	}
	return 0;
}
